; Function Attrs: nofree norecurse nosync nounwind memory(readwrite, inaccessiblemem: none) uwtable
define internal void @SDL_Blit_XBGR8888_XBGR8888_Modulate(ptr noundef captures(none) %0) #0 {
  %2 = getelementptr inbounds nuw i8, ptr %0, i64 112
  %3 = load i32, ptr %2, align 8
  %4 = getelementptr inbounds nuw i8, ptr %0, i64 120
  %5 = load i8, ptr %4, align 8
  %6 = zext i8 %5 to i32
  %7 = getelementptr inbounds nuw i8, ptr %0, i64 121
  %8 = load i8, ptr %7, align 1
  %9 = zext i8 %8 to i32
  %10 = getelementptr inbounds nuw i8, ptr %0, i64 122
  %11 = load i8, ptr %10, align 2
  %12 = zext i8 %11 to i32
  %13 = getelementptr inbounds nuw i8, ptr %0, i64 52
  %14 = load i32, ptr %13, align 4
  %15 = add nsw i32 %14, -1
  store i32 %15, ptr %13, align 4
  %.not52 = icmp eq i32 %14, 0
  br i1 %.not52, label %._crit_edge55, label %.lr.ph54

.lr.ph54:                                         ; preds = %1
  %16 = getelementptr inbounds nuw i8, ptr %0, i64 8
  %17 = getelementptr inbounds nuw i8, ptr %0, i64 40
  %18 = getelementptr inbounds nuw i8, ptr %0, i64 48
  %19 = and i32 %3, 1
  %.not48 = icmp eq i32 %19, 0
  %20 = getelementptr inbounds nuw i8, ptr %0, i64 24
  %21 = getelementptr inbounds nuw i8, ptr %0, i64 56
  %22 = load i32, ptr %18, align 8
  %23 = icmp eq i32 %22, 0
  br i1 %23, label %.lr.ph54.split.us, label %.lr.ph54.split

.lr.ph54.split.us:                                ; preds = %.lr.ph54
  %24 = load i32, ptr %20, align 8
  %25 = sext i32 %24 to i64
  %26 = load i32, ptr %21, align 8
  %27 = sext i32 %26 to i64
  %.promoted = load ptr, ptr %16, align 8
  %.promoted56 = load ptr, ptr %17, align 8
  %28 = zext i32 %14 to i64
  %29 = mul nsw i64 %28, %25
  %scevgep = getelementptr i8, ptr %.promoted, i64 %29
  %30 = mul nsw i64 %28, %27
  %scevgep63 = getelementptr i8, ptr %.promoted56, i64 %30
  store ptr %scevgep, ptr %16, align 8
  store ptr %scevgep63, ptr %17, align 8
  store i32 -1, ptr %13, align 4
  br label %._crit_edge55

.lr.ph54.splitthread-pre-split:                   ; preds = %._crit_edge
  %.pr = load i32, ptr %18, align 8
  br label %.lr.ph54.split

.lr.ph54.split:                                   ; preds = %.lr.ph54, %.lr.ph54.splitthread-pre-split
  %31 = phi i32 [ %.pr, %.lr.ph54.splitthread-pre-split ], [ %22, %.lr.ph54 ]
  %.not4749 = icmp eq i32 %31, 0
  br i1 %.not4749, label %._crit_edge, label %.lr.ph

.lr.ph:                                           ; preds = %.lr.ph54.split
  %32 = add nsw i32 %31, -1
  %33 = load ptr, ptr %17, align 8
  %34 = load ptr, ptr %16, align 8
  br i1 %.not48, label %.lr.ph.split.us, label %.lr.ph.split

.lr.ph.split.us:                                  ; preds = %.lr.ph, %.lr.ph.split.us
  %35 = phi i32 [ %40, %.lr.ph.split.us ], [ %32, %.lr.ph ]
  %.04451.us = phi ptr [ %39, %.lr.ph.split.us ], [ %33, %.lr.ph ]
  %.04550.us = phi ptr [ %38, %.lr.ph.split.us ], [ %34, %.lr.ph ]
  %36 = load i32, ptr %.04550.us, align 4
  %37 = and i32 %36, 16777215
  store i32 %37, ptr %.04451.us, align 4
  %38 = getelementptr inbounds nuw i8, ptr %.04550.us, i64 4
  %39 = getelementptr inbounds nuw i8, ptr %.04451.us, i64 4
  %40 = add nsw i32 %35, -1
  %.not47.us = icmp eq i32 %35, 0
  br i1 %.not47.us, label %._crit_edge, label %.lr.ph.split.us, !llvm.loop !81

.lr.ph.split:                                     ; preds = %.lr.ph, %.lr.ph.split
  %41 = phi i32 [ %70, %.lr.ph.split ], [ %32, %.lr.ph ]
  %.04451 = phi ptr [ %69, %.lr.ph.split ], [ %33, %.lr.ph ]
  %.04550 = phi ptr [ %68, %.lr.ph.split ], [ %34, %.lr.ph ]
  %42 = load i32, ptr %.04550, align 4
  %43 = lshr i32 %42, 16
  %44 = and i32 %43, 255
  %45 = lshr i32 %42, 8
  %46 = and i32 %45, 255
  %47 = and i32 %42, 255
  %48 = mul nuw nsw i32 %47, %6
  %49 = add nuw nsw i32 %48, 1
  %50 = lshr i32 %49, 8
  %51 = and i32 %50, 255
  %52 = add nuw nsw i32 %51, %49
  %53 = lshr i32 %52, 8
  %54 = and i32 %53, 255
  %55 = mul nuw nsw i32 %46, %9
  %56 = add nuw nsw i32 %55, 1
  %57 = lshr i32 %56, 8
  %58 = and i32 %57, 255
  %59 = add nuw nsw i32 %58, %56
  %60 = and i32 %59, 65280
  %61 = mul nuw nsw i32 %44, %12
  %62 = add nuw nsw i32 %61, 1
  %63 = shl nuw nsw i32 %62, 8
  %.mask = and i32 %62, 65280
  %64 = add nuw nsw i32 %.mask, %63
  %65 = and i32 %64, 16711680
  %66 = or disjoint i32 %60, %65
  %67 = or disjoint i32 %66, %54
  store i32 %67, ptr %.04451, align 4
  %68 = getelementptr inbounds nuw i8, ptr %.04550, i64 4
  %69 = getelementptr inbounds nuw i8, ptr %.04451, i64 4
  %70 = add nsw i32 %41, -1
  %.not47 = icmp eq i32 %41, 0
  br i1 %.not47, label %._crit_edge, label %.lr.ph.split, !llvm.loop !81

._crit_edge:                                      ; preds = %.lr.ph.split, %.lr.ph.split.us, %.lr.ph54.split
  %71 = load i32, ptr %20, align 8
  %72 = load ptr, ptr %16, align 8
  %73 = sext i32 %71 to i64
  %74 = getelementptr inbounds i8, ptr %72, i64 %73
  store ptr %74, ptr %16, align 8
  %75 = load i32, ptr %21, align 8
  %76 = load ptr, ptr %17, align 8
  %77 = sext i32 %75 to i64
  %78 = getelementptr inbounds i8, ptr %76, i64 %77
  store ptr %78, ptr %17, align 8
  %79 = load i32, ptr %13, align 4
  %80 = add nsw i32 %79, -1
  store i32 %80, ptr %13, align 4
  %.not = icmp eq i32 %79, 0
  br i1 %.not, label %._crit_edge55, label %.lr.ph54.splitthread-pre-split, !llvm.loop !82

._crit_edge55:                                    ; preds = %._crit_edge, %.lr.ph54.split.us, %1
  ret void
}